target datalayout = "e-m:e-p270:32:32-p271:32:32-p272:64:64-i64:64-i128:128-f80:128-n8:16:32:64-S128"
target triple = "x86_64-pc-linux-gnu"

@output_filename = internal global ptr null, align 8
@.str.193 = private unnamed_addr constant [76 x i8] c"Argument '%s' provided as output filename, but '%s' was already specified.\0A\00", align 1
@.str.194 = private unnamed_addr constant [2 x i8] c"-\00", align 1
@.str.195 = private unnamed_addr constant [4 x i8] c"fd:\00", align 1

; Function Attrs: nounwind uwtable
define internal i32 @opt_output_file_o(ptr noundef %0, ptr noundef %1, ptr noundef %2) #0 {
  %4 = alloca i32, align 4
  %5 = alloca ptr, align 8
  %6 = alloca ptr, align 8
  %7 = alloca ptr, align 8
  store ptr %0, ptr %5, align 8, !tbaa !37
  store ptr %1, ptr %6, align 8, !tbaa !4
  store ptr %2, ptr %7, align 8, !tbaa !4
  %8 = load ptr, ptr @output_filename, align 8, !tbaa !4
  %9 = icmp ne ptr %8, null
  br i1 %9, label %10, label %13

10:                                               ; preds = %3
  %11 = load ptr, ptr %7, align 8, !tbaa !4
  %12 = load ptr, ptr @output_filename, align 8, !tbaa !4
  call void (ptr, i32, ptr, ...) @av_log(ptr noundef null, i32 noundef 16, ptr noundef @.str.193, ptr noundef %11, ptr noundef %12)
  store i32 -22, ptr %4, align 4
  br label %25

13:                                               ; preds = %3
  %14 = load ptr, ptr %7, align 8, !tbaa !4
  %15 = call i32 @strcmp(ptr noundef %14, ptr noundef @.str.194) #15
  %16 = icmp ne i32 %15, 0
  br i1 %16, label %18, label %17

17:                                               ; preds = %13
  store ptr @.str.195, ptr %7, align 8, !tbaa !4
  br label %18

18:                                               ; preds = %17, %13
  %19 = load ptr, ptr %7, align 8, !tbaa !4
  %20 = call noalias ptr @av_strdup(ptr noundef %19)
  store ptr %20, ptr @output_filename, align 8, !tbaa !4
  %21 = load ptr, ptr @output_filename, align 8, !tbaa !4
  %22 = icmp ne ptr %21, null
  br i1 %22, label %24, label %23

23:                                               ; preds = %18
  store i32 -12, ptr %4, align 4
  br label %25

24:                                               ; preds = %18
  store i32 0, ptr %4, align 4
  br label %25

25:                                               ; preds = %24, %23, %10
  %26 = load i32, ptr %4, align 4
  ret i32 %26
}