; Function Attrs: nounwind uwtable
define internal range(i32 -22, 1) i32 @opt_output_file_o(ptr readnone captures(none) %0, ptr readnone captures(none) %1, ptr noundef %2) #0 {
  %4 = load ptr, ptr @output_filename, align 8, !tbaa !13
  %.not = icmp eq ptr %4, null
  br i1 %.not, label %sub_0, label %5

5:                                                ; preds = %3
  tail call void (ptr, i32, ptr, ...) @av_log(ptr noundef null, i32 noundef 16, ptr noundef nonnull @.str.193, ptr noundef %2, ptr noundef nonnull %4) #20
  br label %12

sub_0:                                            ; preds = %3
  %6 = load i8, ptr %2, align 1
  %.not6 = icmp eq i8 %6, 45
  br i1 %.not6, label %sub_1, label %.tail

sub_1:                                            ; preds = %sub_0
  %7 = getelementptr inbounds nuw i8, ptr %2, i64 1
  %8 = load i8, ptr %7, align 1
  %9 = icmp eq i8 %8, 0
  %10 = select i1 %9, ptr @.str.195, ptr %2
  br label %.tail

.tail:                                            ; preds = %sub_0, %sub_1
  %.not4 = phi ptr [ %2, %sub_0 ], [ %10, %sub_1 ]
  %11 = tail call noalias ptr @av_strdup(ptr noundef nonnull %.not4) #20
  store ptr %11, ptr @output_filename, align 8, !tbaa !13
  %.not5 = icmp eq ptr %11, null
  %. = select i1 %.not5, i32 -12, i32 0
  br label %12

12:                                               ; preds = %.tail, %5
  %.0 = phi i32 [ -22, %5 ], [ %., %.tail ]
  ret i32 %.0
}